target datalayout = "e-m:e-p270:32:32-p271:32:32-p272:64:64-i64:64-i128:128-f80:128-n8:16:32:64-S128"
target triple = "x86_64-pc-linux-gnu"

; Function Attrs: mustprogress nounwind uwtable
define noundef zeroext i1 @_ZN32pxrInternal_v0_24__pxrReserved__24Sdf_IsVariableExpressionERKNSt7__cxx1112basic_stringIcSt11char_traitsIcESaIcEEE(ptr noundef nonnull align 8 dereferenceable(32) %0) #5 {
  %2 = alloca ptr, align 8
  store ptr %0, ptr %2, align 8
  %3 = load ptr, ptr %2, align 8
  %4 = call noundef i64 @_ZNKSt7__cxx1112basic_stringIcSt11char_traitsIcESaIcEE6lengthEv(ptr noundef nonnull align 8 dereferenceable(32) %3) #3
  %5 = icmp ugt i64 %4, 2
  br i1 %5, label %6, label %18

6:                                                ; preds = %1
  %7 = load ptr, ptr %2, align 8
  %8 = call noundef nonnull align 1 dereferenceable(1) ptr @_ZNKSt7__cxx1112basic_stringIcSt11char_traitsIcESaIcEE5frontEv(ptr noundef nonnull align 8 dereferenceable(32) %7) #3
  %9 = load i8, ptr %8, align 1
  %10 = sext i8 %9 to i32
  %11 = icmp eq i32 %10, 96
  br i1 %11, label %12, label %18

12:                                               ; preds = %6
  %13 = load ptr, ptr %2, align 8
  %14 = call noundef nonnull align 1 dereferenceable(1) ptr @_ZNKSt7__cxx1112basic_stringIcSt11char_traitsIcESaIcEE4backEv(ptr noundef nonnull align 8 dereferenceable(32) %13) #3
  %15 = load i8, ptr %14, align 1
  %16 = sext i8 %15 to i32
  %17 = icmp eq i32 %16, 96
  br label %18

18:                                               ; preds = %12, %6, %1
  %19 = phi i1 [ false, %6 ], [ false, %1 ], [ %17, %12 ]
  ret i1 %19
}