; Function Attrs: mustprogress nounwind uwtable
define noundef zeroext i1 @_ZN32pxrInternal_v0_24__pxrReserved__24Sdf_IsVariableExpressionERKNSt7__cxx1112basic_stringIcSt11char_traitsIcESaIcEEE(ptr noundef nonnull align 8 dereferenceable(32) %0) local_unnamed_addr #5 {
  %2 = tail call noundef i64 @_ZNKSt7__cxx1112basic_stringIcSt11char_traitsIcESaIcEE6lengthEv(ptr noundef nonnull align 8 dereferenceable(32) %0) #25
  %3 = icmp ugt i64 %2, 2
  br i1 %3, label %4, label %12

4:                                                ; preds = %1
  %5 = tail call noundef nonnull align 1 dereferenceable(1) ptr @_ZNKSt7__cxx1112basic_stringIcSt11char_traitsIcESaIcEE5frontEv(ptr noundef nonnull align 8 dereferenceable(32) %0) #25
  %6 = load i8, ptr %5, align 1
  %7 = icmp eq i8 %6, 96
  br i1 %7, label %8, label %12

8:                                                ; preds = %4
  %9 = tail call noundef nonnull align 1 dereferenceable(1) ptr @_ZNKSt7__cxx1112basic_stringIcSt11char_traitsIcESaIcEE4backEv(ptr noundef nonnull align 8 dereferenceable(32) %0) #25
  %10 = load i8, ptr %9, align 1
  %11 = icmp eq i8 %10, 96
  br label %12

12:                                               ; preds = %8, %4, %1
  %13 = phi i1 [ false, %4 ], [ false, %1 ], [ %11, %8 ]
  ret i1 %13
}